target datalayout = "e-m:e-p270:32:32-p271:32:32-p272:64:64-i64:64-i128:128-f80:128-n8:16:32:64-S128"
target triple = "x86_64-pc-linux-gnu"

%struct.RBasic = type { i64, i64 }

; Function Attrs: inlinehint nounwind sspstrong willreturn memory(read) uwtable
define internal i32 @RB_BUILTIN_TYPE(i64 noundef %0) #9 {
  %2 = alloca i64, align 8
  %3 = alloca i64, align 8
  store i64 %0, ptr %2, align 8, !tbaa !6
  call void @llvm.lifetime.start.p0(i64 8, ptr %3) #15
  %4 = load i64, ptr %2, align 8, !tbaa !6
  %5 = inttoptr i64 %4 to ptr
  %6 = getelementptr inbounds nuw %struct.RBasic, ptr %5, i32 0, i32 0
  %7 = load i64, ptr %6, align 8, !tbaa !53
  %8 = and i64 %7, 31
  store i64 %8, ptr %3, align 8, !tbaa !6
  %9 = load i64, ptr %3, align 8, !tbaa !6
  %10 = trunc i64 %9 to i32
  call void @llvm.lifetime.end.p0(i64 8, ptr %3) #15
  ret i32 %10
}

; Function Attrs: nounwind sspstrong uwtable
define internal void @cos_i(i64 noundef %0, ptr noundef %1) #0 {
  %3 = alloca i64, align 8
  %4 = alloca ptr, align 8
  %5 = alloca ptr, align 8
  store i64 %0, ptr %3, align 8, !tbaa !6
  store ptr %1, ptr %4, align 8, !tbaa !46
  call void @llvm.lifetime.start.p0(i64 8, ptr %5) #15
  %6 = load ptr, ptr %4, align 8, !tbaa !46
  store ptr %6, ptr %5, align 8, !tbaa !12
  %7 = load i64, ptr %3, align 8, !tbaa !6
  %8 = call i64 @rb_obj_memsize_of(i64 noundef %7)
  %9 = load ptr, ptr %5, align 8, !tbaa !12
  %10 = load i64, ptr %3, align 8, !tbaa !6
  %11 = call i32 @RB_BUILTIN_TYPE(i64 noundef %10) #17
  %12 = zext i32 %11 to i64
  %13 = getelementptr inbounds nuw i64, ptr %9, i64 %12
  %14 = load i64, ptr %13, align 8, !tbaa !6
  %15 = add i64 %14, %8
  store i64 %15, ptr %13, align 8, !tbaa !6
  call void @llvm.lifetime.end.p0(i64 8, ptr %5) #15
  ret void
}