; Function Attrs: nounwind sspstrong uwtable
define internal void @cos_i(i64 noundef %0, ptr noundef captures(none) %1) #0 {
  %3 = tail call i64 @rb_obj_memsize_of(i64 noundef %0) #7
  %4 = inttoptr i64 %0 to ptr
  %5 = load i64, ptr %4, align 8, !tbaa !32
  %6 = and i64 %5, 31
  %7 = getelementptr inbounds nuw i64, ptr %1, i64 %6
  %8 = load i64, ptr %7, align 8, !tbaa !6
  %9 = add i64 %8, %3
  store i64 %9, ptr %7, align 8, !tbaa !6
  ret void
}